target datalayout = "e-m:e-p270:32:32-p271:32:32-p272:64:64-i64:64-i128:128-f80:128-n8:16:32:64-S128"
target triple = "x86_64-pc-linux-gnu"

%class.btDefaultCollisionConfiguration = type { %class.btCollisionConfiguration, i32, ptr, i8, ptr, i8, ptr, ptr, ptr, ptr, ptr, ptr, ptr, ptr, ptr, ptr, ptr, ptr, ptr, ptr, ptr, ptr }
%class.btCollisionConfiguration = type { ptr }
%class.btPoolAllocator = type <{ i32, i32, i32, [4 x i8], ptr, ptr, %class.btSpinMutex, [4 x i8] }>
%class.btSpinMutex = type { i32 }

; Function Attrs: mustprogress nounwind uwtable
define linkonce_odr dso_local void @_ZN24btCollisionConfigurationD2Ev(ptr noundef nonnull align 8 dereferenceable(8) %0) unnamed_addr #1 comdat align 2 {
  %2 = alloca ptr, align 8
  store ptr %0, ptr %2, align 8, !tbaa !51
  ret void
}

; Function Attrs: mustprogress nounwind uwtable
define linkonce_odr dso_local void @_ZN15btPoolAllocatorD2Ev(ptr noundef nonnull align 8 dereferenceable(36) %0) unnamed_addr #1 comdat align 2 personality ptr @__gxx_personality_v0 {
  %2 = alloca ptr, align 8
  store ptr %0, ptr %2, align 8, !tbaa !82
  %3 = load ptr, ptr %2, align 8
  %4 = getelementptr inbounds nuw %class.btPoolAllocator, ptr %3, i32 0, i32 5
  %5 = load ptr, ptr %4, align 8, !tbaa !88
  invoke void @_Z21btAlignedFreeInternalPv(ptr noundef %5)
          to label %6 unwind label %7

6:                                                ; preds = %1
  ret void

7:                                                ; preds = %1
  %8 = landingpad { ptr, i32 }
          catch ptr null
  %9 = extractvalue { ptr, i32 } %8, 0
  call void @__clang_call_terminate(ptr %9) #11
  unreachable
}

; Function Attrs: mustprogress nounwind uwtable
define dso_local void @_ZN31btDefaultCollisionConfigurationD2Ev(ptr noundef nonnull align 8 dereferenceable(176) %0) unnamed_addr #1 align 2 personality ptr @__gxx_personality_v0 {
  %2 = alloca ptr, align 8
  store ptr %0, ptr %2, align 8, !tbaa !12
  %3 = load ptr, ptr %2, align 8
  store ptr getelementptr inbounds inrange(-16, 48) ({ [8 x ptr] }, ptr @_ZTV31btDefaultCollisionConfiguration, i32 0, i32 0, i32 2), ptr %3, align 8, !tbaa !16
  %4 = getelementptr inbounds nuw %class.btDefaultCollisionConfiguration, ptr %3, i32 0, i32 5
  %5 = load i8, ptr %4, align 8, !tbaa !48, !range !94, !noundef !95
  %6 = trunc i8 %5 to i1
  br i1 %6, label %7, label %13

7:                                                ; preds = %1
  %8 = getelementptr inbounds nuw %class.btDefaultCollisionConfiguration, ptr %3, i32 0, i32 4
  %9 = load ptr, ptr %8, align 8, !tbaa !49
  call void @_ZN15btPoolAllocatorD2Ev(ptr noundef nonnull align 8 dereferenceable(36) %9) #10
  %10 = getelementptr inbounds nuw %class.btDefaultCollisionConfiguration, ptr %3, i32 0, i32 4
  %11 = load ptr, ptr %10, align 8, !tbaa !49
  invoke void @_Z21btAlignedFreeInternalPv(ptr noundef %11)
          to label %12 unwind label %136

12:                                               ; preds = %7
  br label %13

13:                                               ; preds = %12, %1
  %14 = getelementptr inbounds nuw %class.btDefaultCollisionConfiguration, ptr %3, i32 0, i32 3
  %15 = load i8, ptr %14, align 8, !tbaa !44, !range !94, !noundef !95
  %16 = trunc i8 %15 to i1
  br i1 %16, label %17, label %23

17:                                               ; preds = %13
  %18 = getelementptr inbounds nuw %class.btDefaultCollisionConfiguration, ptr %3, i32 0, i32 2
  %19 = load ptr, ptr %18, align 8, !tbaa !45
  call void @_ZN15btPoolAllocatorD2Ev(ptr noundef nonnull align 8 dereferenceable(36) %19) #10
  %20 = getelementptr inbounds nuw %class.btDefaultCollisionConfiguration, ptr %3, i32 0, i32 2
  %21 = load ptr, ptr %20, align 8, !tbaa !45
  invoke void @_Z21btAlignedFreeInternalPv(ptr noundef %21)
          to label %22 unwind label %136

22:                                               ; preds = %17
  br label %23

23:                                               ; preds = %22, %13
  %24 = getelementptr inbounds nuw %class.btDefaultCollisionConfiguration, ptr %3, i32 0, i32 7
  %25 = load ptr, ptr %24, align 8, !tbaa !28
  %26 = load ptr, ptr %25, align 8, !tbaa !16
  %27 = getelementptr inbounds ptr, ptr %26, i64 0
  %28 = load ptr, ptr %27, align 8
  call void %28(ptr noundef nonnull align 8 dereferenceable(9) %25) #10
  %29 = getelementptr inbounds nuw %class.btDefaultCollisionConfiguration, ptr %3, i32 0, i32 7
  %30 = load ptr, ptr %29, align 8, !tbaa !28
  invoke void @_Z21btAlignedFreeInternalPv(ptr noundef %30)
          to label %31 unwind label %136

31:                                               ; preds = %23
  %32 = getelementptr inbounds nuw %class.btDefaultCollisionConfiguration, ptr %3, i32 0, i32 8
  %33 = load ptr, ptr %32, align 8, !tbaa !29
  %34 = load ptr, ptr %33, align 8, !tbaa !16
  %35 = getelementptr inbounds ptr, ptr %34, i64 0
  %36 = load ptr, ptr %35, align 8
  call void %36(ptr noundef nonnull align 8 dereferenceable(9) %33) #10
  %37 = getelementptr inbounds nuw %class.btDefaultCollisionConfiguration, ptr %3, i32 0, i32 8
  %38 = load ptr, ptr %37, align 8, !tbaa !29
  invoke void @_Z21btAlignedFreeInternalPv(ptr noundef %38)
          to label %39 unwind label %136

39:                                               ; preds = %31
  %40 = getelementptr inbounds nuw %class.btDefaultCollisionConfiguration, ptr %3, i32 0, i32 9
  %41 = load ptr, ptr %40, align 8, !tbaa !30
  %42 = load ptr, ptr %41, align 8, !tbaa !16
  %43 = getelementptr inbounds ptr, ptr %42, i64 0
  %44 = load ptr, ptr %43, align 8
  call void %44(ptr noundef nonnull align 8 dereferenceable(9) %41) #10
  %45 = getelementptr inbounds nuw %class.btDefaultCollisionConfiguration, ptr %3, i32 0, i32 9
  %46 = load ptr, ptr %45, align 8, !tbaa !30
  invoke void @_Z21btAlignedFreeInternalPv(ptr noundef %46)
          to label %47 unwind label %136

47:                                               ; preds = %39
  %48 = getelementptr inbounds nuw %class.btDefaultCollisionConfiguration, ptr %3, i32 0, i32 10
  %49 = load ptr, ptr %48, align 8, !tbaa !31
  %50 = load ptr, ptr %49, align 8, !tbaa !16
  %51 = getelementptr inbounds ptr, ptr %50, i64 0
  %52 = load ptr, ptr %51, align 8
  call void %52(ptr noundef nonnull align 8 dereferenceable(9) %49) #10
  %53 = getelementptr inbounds nuw %class.btDefaultCollisionConfiguration, ptr %3, i32 0, i32 10
  %54 = load ptr, ptr %53, align 8, !tbaa !31
  invoke void @_Z21btAlignedFreeInternalPv(ptr noundef %54)
          to label %55 unwind label %136

55:                                               ; preds = %47
  %56 = getelementptr inbounds nuw %class.btDefaultCollisionConfiguration, ptr %3, i32 0, i32 11
  %57 = load ptr, ptr %56, align 8, !tbaa !32
  %58 = load ptr, ptr %57, align 8, !tbaa !16
  %59 = getelementptr inbounds ptr, ptr %58, i64 0
  %60 = load ptr, ptr %59, align 8
  call void %60(ptr noundef nonnull align 8 dereferenceable(9) %57) #10
  %61 = getelementptr inbounds nuw %class.btDefaultCollisionConfiguration, ptr %3, i32 0, i32 11
  %62 = load ptr, ptr %61, align 8, !tbaa !32
  invoke void @_Z21btAlignedFreeInternalPv(ptr noundef %62)
          to label %63 unwind label %136

63:                                               ; preds = %55
  %64 = getelementptr inbounds nuw %class.btDefaultCollisionConfiguration, ptr %3, i32 0, i32 12
  %65 = load ptr, ptr %64, align 8, !tbaa !33
  %66 = load ptr, ptr %65, align 8, !tbaa !16
  %67 = getelementptr inbounds ptr, ptr %66, i64 0
  %68 = load ptr, ptr %67, align 8
  call void %68(ptr noundef nonnull align 8 dereferenceable(9) %65) #10
  %69 = getelementptr inbounds nuw %class.btDefaultCollisionConfiguration, ptr %3, i32 0, i32 12
  %70 = load ptr, ptr %69, align 8, !tbaa !33
  invoke void @_Z21btAlignedFreeInternalPv(ptr noundef %70)
          to label %71 unwind label %136

71:                                               ; preds = %63
  %72 = getelementptr inbounds nuw %class.btDefaultCollisionConfiguration, ptr %3, i32 0, i32 13
  %73 = load ptr, ptr %72, align 8, !tbaa !34
  %74 = load ptr, ptr %73, align 8, !tbaa !16
  %75 = getelementptr inbounds ptr, ptr %74, i64 0
  %76 = load ptr, ptr %75, align 8
  call void %76(ptr noundef nonnull align 8 dereferenceable(9) %73) #10
  %77 = getelementptr inbounds nuw %class.btDefaultCollisionConfiguration, ptr %3, i32 0, i32 13
  %78 = load ptr, ptr %77, align 8, !tbaa !34
  invoke void @_Z21btAlignedFreeInternalPv(ptr noundef %78)
          to label %79 unwind label %136

79:                                               ; preds = %71
  %80 = getelementptr inbounds nuw %class.btDefaultCollisionConfiguration, ptr %3, i32 0, i32 14
  %81 = load ptr, ptr %80, align 8, !tbaa !35
  %82 = load ptr, ptr %81, align 8, !tbaa !16
  %83 = getelementptr inbounds ptr, ptr %82, i64 0
  %84 = load ptr, ptr %83, align 8
  call void %84(ptr noundef nonnull align 8 dereferenceable(9) %81) #10
  %85 = getelementptr inbounds nuw %class.btDefaultCollisionConfiguration, ptr %3, i32 0, i32 14
  %86 = load ptr, ptr %85, align 8, !tbaa !35
  invoke void @_Z21btAlignedFreeInternalPv(ptr noundef %86)
          to label %87 unwind label %136

87:                                               ; preds = %79
  %88 = getelementptr inbounds nuw %class.btDefaultCollisionConfiguration, ptr %3, i32 0, i32 18
  %89 = load ptr, ptr %88, align 8, !tbaa !36
  %90 = load ptr, ptr %89, align 8, !tbaa !16
  %91 = getelementptr inbounds ptr, ptr %90, i64 0
  %92 = load ptr, ptr %91, align 8
  call void %92(ptr noundef nonnull align 8 dereferenceable(9) %89) #10
  %93 = getelementptr inbounds nuw %class.btDefaultCollisionConfiguration, ptr %3, i32 0, i32 18
  %94 = load ptr, ptr %93, align 8, !tbaa !36
  invoke void @_Z21btAlignedFreeInternalPv(ptr noundef %94)
          to label %95 unwind label %136

95:                                               ; preds = %87
  %96 = getelementptr inbounds nuw %class.btDefaultCollisionConfiguration, ptr %3, i32 0, i32 19
  %97 = load ptr, ptr %96, align 8, !tbaa !37
  %98 = load ptr, ptr %97, align 8, !tbaa !16
  %99 = getelementptr inbounds ptr, ptr %98, i64 0
  %100 = load ptr, ptr %99, align 8
  call void %100(ptr noundef nonnull align 8 dereferenceable(9) %97) #10
  %101 = getelementptr inbounds nuw %class.btDefaultCollisionConfiguration, ptr %3, i32 0, i32 19
  %102 = load ptr, ptr %101, align 8, !tbaa !37
  invoke void @_Z21btAlignedFreeInternalPv(ptr noundef %102)
          to label %103 unwind label %136

103:                                              ; preds = %95
  %104 = getelementptr inbounds nuw %class.btDefaultCollisionConfiguration, ptr %3, i32 0, i32 17
  %105 = load ptr, ptr %104, align 8, !tbaa !40
  %106 = load ptr, ptr %105, align 8, !tbaa !16
  %107 = getelementptr inbounds ptr, ptr %106, i64 0
  %108 = load ptr, ptr %107, align 8
  call void %108(ptr noundef nonnull align 8 dereferenceable(9) %105) #10
  %109 = getelementptr inbounds nuw %class.btDefaultCollisionConfiguration, ptr %3, i32 0, i32 17
  %110 = load ptr, ptr %109, align 8, !tbaa !40
  invoke void @_Z21btAlignedFreeInternalPv(ptr noundef %110)
          to label %111 unwind label %136

111:                                              ; preds = %103
  %112 = getelementptr inbounds nuw %class.btDefaultCollisionConfiguration, ptr %3, i32 0, i32 21
  %113 = load ptr, ptr %112, align 8, !tbaa !41
  %114 = load ptr, ptr %113, align 8, !tbaa !16
  %115 = getelementptr inbounds ptr, ptr %114, i64 0
  %116 = load ptr, ptr %115, align 8
  call void %116(ptr noundef nonnull align 8 dereferenceable(9) %113) #10
  %117 = getelementptr inbounds nuw %class.btDefaultCollisionConfiguration, ptr %3, i32 0, i32 21
  %118 = load ptr, ptr %117, align 8, !tbaa !41
  invoke void @_Z21btAlignedFreeInternalPv(ptr noundef %118)
          to label %119 unwind label %136

119:                                              ; preds = %111
  %120 = getelementptr inbounds nuw %class.btDefaultCollisionConfiguration, ptr %3, i32 0, i32 20
  %121 = load ptr, ptr %120, align 8, !tbaa !42
  %122 = load ptr, ptr %121, align 8, !tbaa !16
  %123 = getelementptr inbounds ptr, ptr %122, i64 0
  %124 = load ptr, ptr %123, align 8
  call void %124(ptr noundef nonnull align 8 dereferenceable(9) %121) #10
  %125 = getelementptr inbounds nuw %class.btDefaultCollisionConfiguration, ptr %3, i32 0, i32 20
  %126 = load ptr, ptr %125, align 8, !tbaa !42
  invoke void @_Z21btAlignedFreeInternalPv(ptr noundef %126)
          to label %127 unwind label %136

127:                                              ; preds = %119
  %128 = getelementptr inbounds nuw %class.btDefaultCollisionConfiguration, ptr %3, i32 0, i32 6
  %129 = load ptr, ptr %128, align 8, !tbaa !22
  %130 = load ptr, ptr %129, align 8, !tbaa !16
  %131 = getelementptr inbounds ptr, ptr %130, i64 0
  %132 = load ptr, ptr %131, align 8
  call void %132(ptr noundef nonnull align 8 dereferenceable(8) %129) #10
  %133 = getelementptr inbounds nuw %class.btDefaultCollisionConfiguration, ptr %3, i32 0, i32 6
  %134 = load ptr, ptr %133, align 8, !tbaa !22
  invoke void @_Z21btAlignedFreeInternalPv(ptr noundef %134)
          to label %135 unwind label %136

135:                                              ; preds = %127
  call void @_ZN24btCollisionConfigurationD2Ev(ptr noundef nonnull align 8 dereferenceable(8) %3) #10
  ret void

136:                                              ; preds = %127, %119, %111, %103, %95, %87, %79, %71, %63, %55, %47, %39, %31, %23, %17, %7
  %137 = landingpad { ptr, i32 }
          catch ptr null
  %138 = extractvalue { ptr, i32 } %137, 0
  call void @__clang_call_terminate(ptr %138) #11
  unreachable
}