; Function Attrs: mustprogress nounwind uwtable
define dso_local void @_ZN31btDefaultCollisionConfigurationD2Ev(ptr noundef nonnull align 8 captures(none) dereferenceable(176) initializes((0, 8)) %0) unnamed_addr #2 align 2 personality ptr @__gxx_personality_v0 {
  store ptr getelementptr inbounds nuw inrange(-16, 48) (i8, ptr @_ZTV31btDefaultCollisionConfiguration, i64 16), ptr %0, align 8, !tbaa !4
  %2 = getelementptr inbounds nuw i8, ptr %0, i64 40
  %3 = load i8, ptr %2, align 8, !tbaa !55, !range !58, !noundef !59
  %4 = trunc nuw i8 %3 to i1
  br i1 %4, label %5, label %14

5:                                                ; preds = %1
  %6 = getelementptr inbounds nuw i8, ptr %0, i64 32
  %7 = load ptr, ptr %6, align 8, !tbaa !57
  %8 = getelementptr inbounds nuw i8, ptr %7, i64 24
  %9 = load ptr, ptr %8, align 8, !tbaa !47
  invoke void @_Z21btAlignedFreeInternalPv(ptr noundef %9)
          to label %_ZN15btPoolAllocatorD2Ev.exit unwind label %10

10:                                               ; preds = %5
  %11 = landingpad { ptr, i32 }
          catch ptr null
  %12 = extractvalue { ptr, i32 } %11, 0
  tail call void @__clang_call_terminate(ptr %12) #10
  unreachable

_ZN15btPoolAllocatorD2Ev.exit:                    ; preds = %5
  %13 = load ptr, ptr %6, align 8, !tbaa !57
  invoke void @_Z21btAlignedFreeInternalPv(ptr noundef %13)
          to label %14 unwind label %112

14:                                               ; preds = %_ZN15btPoolAllocatorD2Ev.exit, %1
  %15 = getelementptr inbounds nuw i8, ptr %0, i64 24
  %16 = load i8, ptr %15, align 8, !tbaa !39, !range !58, !noundef !59
  %17 = trunc nuw i8 %16 to i1
  br i1 %17, label %18, label %27

18:                                               ; preds = %14
  %19 = getelementptr inbounds nuw i8, ptr %0, i64 16
  %20 = load ptr, ptr %19, align 8, !tbaa !53
  %21 = getelementptr inbounds nuw i8, ptr %20, i64 24
  %22 = load ptr, ptr %21, align 8, !tbaa !47
  invoke void @_Z21btAlignedFreeInternalPv(ptr noundef %22)
          to label %_ZN15btPoolAllocatorD2Ev.exit1 unwind label %23

23:                                               ; preds = %18
  %24 = landingpad { ptr, i32 }
          catch ptr null
  %25 = extractvalue { ptr, i32 } %24, 0
  tail call void @__clang_call_terminate(ptr %25) #10
  unreachable

_ZN15btPoolAllocatorD2Ev.exit1:                   ; preds = %18
  %26 = load ptr, ptr %19, align 8, !tbaa !53
  invoke void @_Z21btAlignedFreeInternalPv(ptr noundef %26)
          to label %27 unwind label %112

27:                                               ; preds = %_ZN15btPoolAllocatorD2Ev.exit1, %14
  %28 = getelementptr inbounds nuw i8, ptr %0, i64 56
  %29 = load ptr, ptr %28, align 8, !tbaa !19
  %30 = load ptr, ptr %29, align 8, !tbaa !4
  %31 = load ptr, ptr %30, align 8
  tail call void %31(ptr noundef nonnull align 8 dereferenceable(9) %29) #11
  %32 = load ptr, ptr %28, align 8, !tbaa !19
  invoke void @_Z21btAlignedFreeInternalPv(ptr noundef %32)
          to label %33 unwind label %112

33:                                               ; preds = %27
  %34 = getelementptr inbounds nuw i8, ptr %0, i64 64
  %35 = load ptr, ptr %34, align 8, !tbaa !22
  %36 = load ptr, ptr %35, align 8, !tbaa !4
  %37 = load ptr, ptr %36, align 8
  tail call void %37(ptr noundef nonnull align 8 dereferenceable(9) %35) #11
  %38 = load ptr, ptr %34, align 8, !tbaa !22
  invoke void @_Z21btAlignedFreeInternalPv(ptr noundef %38)
          to label %39 unwind label %112

39:                                               ; preds = %33
  %40 = getelementptr inbounds nuw i8, ptr %0, i64 72
  %41 = load ptr, ptr %40, align 8, !tbaa !23
  %42 = load ptr, ptr %41, align 8, !tbaa !4
  %43 = load ptr, ptr %42, align 8
  tail call void %43(ptr noundef nonnull align 8 dereferenceable(9) %41) #11
  %44 = load ptr, ptr %40, align 8, !tbaa !23
  invoke void @_Z21btAlignedFreeInternalPv(ptr noundef %44)
          to label %45 unwind label %112

45:                                               ; preds = %39
  %46 = getelementptr inbounds nuw i8, ptr %0, i64 80
  %47 = load ptr, ptr %46, align 8, !tbaa !24
  %48 = load ptr, ptr %47, align 8, !tbaa !4
  %49 = load ptr, ptr %48, align 8
  tail call void %49(ptr noundef nonnull align 8 dereferenceable(9) %47) #11
  %50 = load ptr, ptr %46, align 8, !tbaa !24
  invoke void @_Z21btAlignedFreeInternalPv(ptr noundef %50)
          to label %51 unwind label %112

51:                                               ; preds = %45
  %52 = getelementptr inbounds nuw i8, ptr %0, i64 88
  %53 = load ptr, ptr %52, align 8, !tbaa !25
  %54 = load ptr, ptr %53, align 8, !tbaa !4
  %55 = load ptr, ptr %54, align 8
  tail call void %55(ptr noundef nonnull align 8 dereferenceable(9) %53) #11
  %56 = load ptr, ptr %52, align 8, !tbaa !25
  invoke void @_Z21btAlignedFreeInternalPv(ptr noundef %56)
          to label %57 unwind label %112

57:                                               ; preds = %51
  %58 = getelementptr inbounds nuw i8, ptr %0, i64 96
  %59 = load ptr, ptr %58, align 8, !tbaa !26
  %60 = load ptr, ptr %59, align 8, !tbaa !4
  %61 = load ptr, ptr %60, align 8
  tail call void %61(ptr noundef nonnull align 8 dereferenceable(9) %59) #11
  %62 = load ptr, ptr %58, align 8, !tbaa !26
  invoke void @_Z21btAlignedFreeInternalPv(ptr noundef %62)
          to label %63 unwind label %112

63:                                               ; preds = %57
  %64 = getelementptr inbounds nuw i8, ptr %0, i64 104
  %65 = load ptr, ptr %64, align 8, !tbaa !27
  %66 = load ptr, ptr %65, align 8, !tbaa !4
  %67 = load ptr, ptr %66, align 8
  tail call void %67(ptr noundef nonnull align 8 dereferenceable(9) %65) #11
  %68 = load ptr, ptr %64, align 8, !tbaa !27
  invoke void @_Z21btAlignedFreeInternalPv(ptr noundef %68)
          to label %69 unwind label %112

69:                                               ; preds = %63
  %70 = getelementptr inbounds nuw i8, ptr %0, i64 112
  %71 = load ptr, ptr %70, align 8, !tbaa !28
  %72 = load ptr, ptr %71, align 8, !tbaa !4
  %73 = load ptr, ptr %72, align 8
  tail call void %73(ptr noundef nonnull align 8 dereferenceable(9) %71) #11
  %74 = load ptr, ptr %70, align 8, !tbaa !28
  invoke void @_Z21btAlignedFreeInternalPv(ptr noundef %74)
          to label %75 unwind label %112

75:                                               ; preds = %69
  %76 = getelementptr inbounds nuw i8, ptr %0, i64 144
  %77 = load ptr, ptr %76, align 8, !tbaa !29
  %78 = load ptr, ptr %77, align 8, !tbaa !4
  %79 = load ptr, ptr %78, align 8
  tail call void %79(ptr noundef nonnull align 8 dereferenceable(9) %77) #11
  %80 = load ptr, ptr %76, align 8, !tbaa !29
  invoke void @_Z21btAlignedFreeInternalPv(ptr noundef %80)
          to label %81 unwind label %112

81:                                               ; preds = %75
  %82 = getelementptr inbounds nuw i8, ptr %0, i64 152
  %83 = load ptr, ptr %82, align 8, !tbaa !30
  %84 = load ptr, ptr %83, align 8, !tbaa !4
  %85 = load ptr, ptr %84, align 8
  tail call void %85(ptr noundef nonnull align 8 dereferenceable(9) %83) #11
  %86 = load ptr, ptr %82, align 8, !tbaa !30
  invoke void @_Z21btAlignedFreeInternalPv(ptr noundef %86)
          to label %87 unwind label %112

87:                                               ; preds = %81
  %88 = getelementptr inbounds nuw i8, ptr %0, i64 136
  %89 = load ptr, ptr %88, align 8, !tbaa !31
  %90 = load ptr, ptr %89, align 8, !tbaa !4
  %91 = load ptr, ptr %90, align 8
  tail call void %91(ptr noundef nonnull align 8 dereferenceable(9) %89) #11
  %92 = load ptr, ptr %88, align 8, !tbaa !31
  invoke void @_Z21btAlignedFreeInternalPv(ptr noundef %92)
          to label %93 unwind label %112

93:                                               ; preds = %87
  %94 = getelementptr inbounds nuw i8, ptr %0, i64 168
  %95 = load ptr, ptr %94, align 8, !tbaa !35
  %96 = load ptr, ptr %95, align 8, !tbaa !4
  %97 = load ptr, ptr %96, align 8
  tail call void %97(ptr noundef nonnull align 8 dereferenceable(9) %95) #11
  %98 = load ptr, ptr %94, align 8, !tbaa !35
  invoke void @_Z21btAlignedFreeInternalPv(ptr noundef %98)
          to label %99 unwind label %112

99:                                               ; preds = %93
  %100 = getelementptr inbounds nuw i8, ptr %0, i64 160
  %101 = load ptr, ptr %100, align 8, !tbaa !36
  %102 = load ptr, ptr %101, align 8, !tbaa !4
  %103 = load ptr, ptr %102, align 8
  tail call void %103(ptr noundef nonnull align 8 dereferenceable(9) %101) #11
  %104 = load ptr, ptr %100, align 8, !tbaa !36
  invoke void @_Z21btAlignedFreeInternalPv(ptr noundef %104)
          to label %105 unwind label %112

105:                                              ; preds = %99
  %106 = getelementptr inbounds nuw i8, ptr %0, i64 48
  %107 = load ptr, ptr %106, align 8, !tbaa !13
  %108 = load ptr, ptr %107, align 8, !tbaa !4
  %109 = load ptr, ptr %108, align 8
  tail call void %109(ptr noundef nonnull align 8 dereferenceable(8) %107) #11
  %110 = load ptr, ptr %106, align 8, !tbaa !13
  invoke void @_Z21btAlignedFreeInternalPv(ptr noundef %110)
          to label %111 unwind label %112

111:                                              ; preds = %105
  ret void

112:                                              ; preds = %105, %99, %93, %87, %81, %75, %69, %63, %57, %51, %45, %39, %33, %27, %_ZN15btPoolAllocatorD2Ev.exit1, %_ZN15btPoolAllocatorD2Ev.exit
  %113 = landingpad { ptr, i32 }
          catch ptr null
  %114 = extractvalue { ptr, i32 } %113, 0
  tail call void @__clang_call_terminate(ptr %114) #10
  unreachable
}